(dp0
S'UnPooled'
p1
(dp2
S'Resting potential test'
p3
(dp4
S'std'
p5
cquantities.quantity
_reconstruct_quantity
p6
(cquantities.quantity
Quantity
p7
cnumpy
ndarray
p8
(I0
tp9
S'b'
p10
tp11
Rp12
(I1
(tcnumpy
dtype
p13
(S'f8'
p14
I0
I1
tp15
Rp16
(I3
S'<'
p17
NNNI-1
I-1
I0
tp18
bI00
S'1\xac $@\xf9\x13@'
p19
ccopy_reg
_reconstructor
p20
(cquantities.dimensionality
Dimensionality
p21
c__builtin__
dict
p22
(dp23
cquantities.unitquantity
UnitQuantity
p24
(S'millivolt'
p25
g6
(g7
g8
g9
g10
tp26
Rp27
(I1
(tg16
I00
S'\xfc\xa9\xf1\xd2MbP?'
p28
g20
(g21
g22
(dp29
g24
(S'volt'
p30
g6
(g7
g8
g9
g10
tp31
Rp32
(I1
(tg16
I00
S'\x00\x00\x00\x00\x00\x00\xf0?'
p33
g20
(g21
g22
(dp34
g24
(S'coulomb'
p35
g6
(g7
g8
g9
g10
tp36
Rp37
(I1
(tg16
I00
S'\x00\x00\x00\x00\x00\x00\xf0?'
p38
g20
(g21
g22
(dp39
cquantities.unitquantity
UnitTime
p40
(S'second'
p41
NS's'
p42
N(lp43
S'sec'
p44
aS'seconds'
p45
aNtp46
Rp47
(I1
(I3
I0
tp48
tp49
bI1
scquantities.unitquantity
UnitCurrent
p50
(S'ampere'
p51
NS'A'
p52
N(lp53
S'amp'
p54
aS'amps'
p55
aS'amperes'
p56
aNtp57
Rp58
(I1
(I4
I96
tp59
tp60
bI1
stp61
Rp62
tp63
bS'C'
p64
N(lp65
Ntp66
Rp67
(I1
(I90
I99
tp68
tp69
bI-1
sg24
(S'joule'
p70
g6
(g7
g8
g9
g10
tp71
Rp72
(I1
(tg16
I00
S'\x00\x00\x00\x00\x00\x00\xf0?'
p73
g20
(g21
g22
(dp74
g24
(S'newton'
p75
g6
(g7
g8
g9
g10
tp76
Rp77
(I1
(tg16
I00
S'\x00\x00\x00\x00\x00\x00\xf0?'
p78
g20
(g21
g22
(dp79
g47
I-2
scquantities.unitquantity
UnitMass
p80
(S'kilogram'
p81
NS'kg'
p82
N(lp83
S'kilograms'
p84
aNtp85
Rp86
(I1
(I1
I63
tp87
tp88
bI1
scquantities.unitquantity
UnitLength
p89
(S'meter'
p90
NS'm'
p91
N(lp92
S'meters'
p93
aS'metre'
p94
aS'metres'
p95
aNtp96
Rp97
(I1
(I2
I2
tp98
tp99
bI1
stp100
Rp101
tp102
bS'N'
p103
N(lp104
S'newtons'
p105
aNtp106
Rp107
(I1
(I90
I66
tp108
tp109
bI1
sg97
I1
stp110
Rp111
tp112
bS'J'
p113
N(lp114
S'joules'
p115
aNtp116
Rp117
(I1
(I90
I76
tp118
tp119
bI1
stp120
Rp121
tp122
bS'V'
p123
N(lp124
S'volts'
p125
aNtp126
Rp127
(I1
(I90
I100
tp128
tp129
bI1
stp130
Rp131
tp132
bS'mV'
p133
N(lp134
S'millivolts'
p135
aNtp136
Rp137
(I1
(I90
I102
tp138
tp139
bI1
stp140
Rp141
tp142
bsS'n'
p143
(dp144
Vnlex_id
p145
Vnlx_anat_100201
p146
sVneuron_db_id
p147
I267
sVid
p148
I129
sVname
p149
VOlfactory bulb (main) mitral cell
p150
ssS'mean'
p151
g6
(g7
g8
g9
g10
tp152
Rp153
(I1
(tg16
I00
S'\x00\x00\x00\x00\x00\x12M\xc0'
p154
g20
(g21
g22
(dp155
g137
I1
stp156
Rp157
tp158
bssS'Injected current AP threshold test'
p159
(dp160
g5
g6
(g7
g8
g9
g10
tp161
Rp162
(I1
(tg16
I00
S'N\x9b\x98\x8c\n\xfd\x1d@'
p163
g20
(g21
g22
(dp164
g137
I1
stp165
Rp166
tp167
bsg143
(dp168
Vnlex_id
p169
Vnlx_anat_100201
p170
sVneuron_db_id
p171
I267
sVid
p172
I129
sVname
p173
VOlfactory bulb (main) mitral cell
p174
ssg151
g6
(g7
g8
g9
g10
tp175
Rp176
(I1
(tg16
I00
S'33333sC\xc0'
p177
g20
(g21
g22
(dp178
g137
I1
stp179
Rp180
tp181
bssS'Time constant test'
p182
(dp183
g5
g6
(g7
g8
g9
g10
tp184
Rp185
(I1
(tg16
I00
S'\xb1R-6\x87%"@'
p186
g20
(g21
g22
(dp187
g40
(S'millisecond'
p188
g6
(g7
g8
g9
g10
tp189
Rp190
(I1
(tg16
I00
S'\xfc\xa9\xf1\xd2MbP?'
p191
g20
(g21
g22
(dp192
g47
I1
stp193
Rp194
tp195
bS'ms'
p196
N(lp197
S'milliseconds'
p198
aNtp199
Rp200
(I1
(I3
I1
tp201
tp202
bI1
stp203
Rp204
tp205
bsg143
(dp206
Vnlex_id
p207
Vnlx_anat_100201
p208
sVneuron_db_id
p209
I267
sVid
p210
I129
sVname
p211
VOlfactory bulb (main) mitral cell
p212
ssg151
g6
(g7
g8
g9
g10
tp213
Rp214
(I1
(tg16
I00
S'\xb2\xbb\xbb\xbb\xbb{8@'
p215
g20
(g21
g22
(dp216
g200
I1
stp217
Rp218
tp219
bssS'Injected current AP width test'
p220
(dp221
g5
g6
(g7
g8
g9
g10
tp222
Rp223
(I1
(tg16
I00
S'+\x1c\\\xeb\xc1u\xd4?'
p224
g20
(g21
g22
(dp225
g200
I1
stp226
Rp227
tp228
bsg143
(dp229
Vnlex_id
p230
Vnlx_anat_100201
p231
sVneuron_db_id
p232
I267
sVid
p233
I129
sVname
p234
VOlfactory bulb (main) mitral cell
p235
ssg151
g6
(g7
g8
g9
g10
tp236
Rp237
(I1
(tg16
I00
S'\xc3\xf5(\\\x8f\xc2\xf9?'
p238
g20
(g21
g22
(dp239
g200
I1
stp240
Rp241
tp242
bssS'Input resistance test'
p243
(dp244
g5
g6
(g7
g8
g9
g10
tp245
Rp246
(I1
(tg16
I00
S'\x08AB\xd2\xcbA\x92A'
p247
g20
(g21
g22
(dp248
g24
(S'ohm'
p249
g6
(g7
g8
g9
g10
tp250
Rp251
(I1
(tg16
I00
S'\x00\x00\x00\x00\x00\x00\xf0?'
p252
g20
(g21
g22
(dp253
g127
I1
sg58
I-1
stp254
Rp255
tp256
bNS'\xce\xa9'
p257
(lp258
S'ohms'
p259
aS'Ohm'
p260
aNtp261
Rp262
(I1
(I90
I109
tp263
tp264
bI1
stp265
Rp266
tp267
bsg143
(dp268
Vnlex_id
p269
Vnlx_anat_100201
p270
sVneuron_db_id
p271
I267
sVid
p272
I129
sVname
p273
VOlfactory bulb (main) mitral cell
p274
ssg151
g6
(g7
g8
g9
g10
tp275
Rp276
(I1
(tg16
I00
S'?UU\x15\xa8\x03\x9fA'
p277
g20
(g21
g22
(dp278
g262
I1
stp279
Rp280
tp281
bssS'Injected current AP amplitude test'
p282
(dp283
g5
g6
(g7
g8
g9
g10
tp284
Rp285
(I1
(tg16
I00
S'\xf2\xa2\xfa\xa9\x06\xac\x13@'
p286
g20
(g21
g22
(dp287
g137
I1
stp288
Rp289
tp290
bsg143
(dp291
Vnlex_id
p292
Vnlx_anat_100201
p293
sVneuron_db_id
p294
I267
sVid
p295
I129
sVname
p296
VOlfactory bulb (main) mitral cell
p297
ssg151
g6
(g7
g8
g9
g10
tp298
Rp299
(I1
(tg16
I00
S'\x9a\x99\x99\x99\x99\x19Q@'
p300
g20
(g21
g22
(dp301
g137
I1
stp302
Rp303
tp304
bsssS'Pooled'
p305
(dp306
g3
(dp307
g5
g6
(g7
g8
g9
g10
tp308
Rp309
(I1
(tg16
I00
S'\x17\xd7\x04\x06T\xa18@'
p310
g20
(g21
g22
(dp311
g137
I1
stp312
Rp313
tp314
bsg143
cnumpy.core.multiarray
scalar
p315
(g13
(S'i8'
p316
I0
I1
tp317
Rp318
(I3
S'<'
p319
NNNI-1
I-1
I0
tp320
bS'\x8f\x01\x00\x00\x00\x00\x00\x00'
p321
tp322
Rp323
sS'data'
p324
(lp325
(dp326
g143
I3
sS'sem'
p327
F2.829016319029167
sS'sd'
p328
F4.9
sS'source'
p329
V/api/1/source/1483/
p330
sg151
F-51.3
sa(dp331
g143
I43
sg327
F8.6
sg328
F56.3939713089972
sg329
V/api/1/source/25442/
p332
sg151
F-65.4
sa(dp333
g143
I14
sg327
F1.7
sg328
F6.3608175575157
sg329
V/api/1/source/25444/
p334
sg151
F-62.7
sa(dp335
g143
I22
sg327
F1.2
sg328
F5.628498911788116
sg329
V/api/1/source/25445/
p336
sg151
F-56.0
sa(dp337
g143
I25
sg327
F1.2
sg328
F6.0
sg329
V/api/1/source/25446/
p338
sg151
F-53.8
sa(dp339
g143
I10
sg327
F0.7
sg328
F2.2135943621178655
sg329
V/api/1/source/25447/
p340
sg151
F-61.5
sa(dp341
g143
I7
sg327
F2.6
sg328
F6.878953408767936
sg329
V/api/1/source/25448/
p342
sg151
F-63.6
sa(dp343
g143
I6
sg327
F4.9
sg328
F12.002499739637573
sg329
V/api/1/source/25450/
p344
sg151
F-64.3
sa(dp345
g143
I21
sg327
F4.9
sg328
F22.454620905283615
sg329
V/api/1/source/25452/
p346
sg151
F-51.3
sa(dp347
g143
I29
sg327
F3.2
sg328
F17.232527382830412
sg329
V/api/1/source/25455/
p348
sg151
F-57.0
sa(dp349
g143
I45
sg327
F0.6
sg328
F4.024922359499621
sg329
V/api/1/source/25456/
p350
sg151
F-63.5
sa(dp351
g143
I57
sg327
F1.1
sg328
F8.304817878797826
sg329
V/api/1/source/25458/
p352
sg151
F-49.0
sa(dp353
g143
I5
sg327
F4.9
sg328
F10.95673308974897
sg329
V/api/1/source/25459/
p354
sg151
F-55.0
sa(dp355
g143
I20
sg327
F2.7
sg328
F12.074767078498866
sg329
V/api/1/source/25477/
p356
sg151
F-61.65
sa(dp357
g143
I9
sg327
F0.2
sg328
F0.6000000000000001
sg329
V/api/1/source/25479/
p358
sg151
F-53.4
sa(dp359
g143
I48
sg327
F5.5
sg328
F38.1051177665153
sg329
V/api/1/source/47396/
p360
sg151
F-58.2
sa(dp361
g143
I35
sg327
F0.6761234037828132
sg328
F4.0
sg329
V/api/1/source/48042/
p362
sg151
F-53.9
sasg151
g6
(g7
g8
g9
g10
tp363
Rp364
(I1
(tg16
I00
S'{\xbb\x81\x87\xa0\xb7L\xc0'
p365
g20
(g21
g22
(dp366
g137
I1
stp367
Rp368
tp369
bssg159
(dp370
g5
g6
(g7
g8
g9
g10
tp371
Rp372
(I1
(tg16
I00
S'\xa5@\x9b\xde\xb7cL@'
p373
g20
(g21
g22
(dp374
g137
I1
stp375
Rp376
tp377
bsg143
g315
(g318
S'8\x00\x00\x00\x00\x00\x00\x00'
p378
tp379
Rp380
sg324
(lp381
(dp382
g143
I3
sg327
F0.6
sg328
F1.0392304845413263
sg329
V/api/1/source/25447/
p383
sg151
F-49.5
sa(dp384
g143
I5
sg327
F2.3
sg328
F5.142956348249516
sg329
V/api/1/source/25451/
p385
sg151
F-33.4
sa(dp386
g143
I48
sg327
F8.7
sg328
F60.27536810339692
sg329
V/api/1/source/47396/
p387
sg151
F-33.8
sasg151
g6
(g7
g8
g9
g10
tp388
Rp389
(I1
(tg16
I00
S'W|\xc5W|MA\xc0'
p390
g20
(g21
g22
(dp391
g137
I1
stp392
Rp393
tp394
bssg182
(dp395
g5
g6
(g7
g8
g9
g10
tp396
Rp397
(I1
(tg16
I00
S'\x8a\xadI\xd0\xfc\x96P@'
p398
g20
(g21
g22
(dp399
g200
I1
stp400
Rp401
tp402
bsg143
g315
(g318
S'\x95\x00\x00\x00\x00\x00\x00\x00'
p403
tp404
Rp405
sg324
(lp406
(dp407
g143
I19
sg327
F3.0
sg328
F13.076696830622023
sg329
V/api/1/source/25444/
p408
sg151
F19.0
sa(dp409
g143
I7
sg327
F4.0
sg328
F10.583005244258363
sg329
V/api/1/source/25445/
p410
sg151
F22.0
sa(dp411
g143
I35
sg327
F2.7
sg328
F15.973415414368965
sg329
V/api/1/source/25478/
p412
sg151
F42.5
sa(dp413
g143
I5
sg327
F2.0124611797498106
sg328
F4.5
sg329
V/api/1/source/25497/
p414
sg151
F14.0
sa(dp415
g143
I48
sg327
F16.5
sg328
F114.31535329954589
sg329
V/api/1/source/47396/
p416
sg151
F28.1
sa(dp417
g143
I35
sg327
F1.5888899988896112
sg328
F9.4
sg329
V/api/1/source/48042/
p418
sg151
F21.3
sasg151
g6
(g7
g8
g9
g10
tp419
Rp420
(I1
(tg16
I00
S'\xe3\xe5k\xd6\x10\xf7;@'
p421
g20
(g21
g22
(dp422
g200
I1
stp423
Rp424
tp425
bssg220
(dp426
g5
g6
(g7
g8
g9
g10
tp427
Rp428
(I1
(tg16
I00
S'Wz!\x16^\xc5\xee?'
p429
g20
(g21
g22
(dp430
g200
I1
stp431
Rp432
tp433
bsg143
g315
(g318
S'p\x00\x00\x00\x00\x00\x00\x00'
p434
tp435
Rp436
sg324
(lp437
(dp438
g143
I19
sg327
F0.1
sg328
F0.43588989435406744
sg329
V/api/1/source/25444/
p439
sg151
F1.98
sa(dp440
g143
I45
sg327
F0.06
sg328
F0.40249223594996214
sg329
V/api/1/source/25456/
p441
sg151
F1.65
sa(dp442
g143
I48
sg327
F0.2
sg328
F1.3856406460551018
sg329
V/api/1/source/47396/
p443
sg151
F1.2
sasg151
g6
(g7
g8
g9
g10
tp444
Rp445
(I1
(tg16
I00
S'\xf6(\\\x8f\xc25\xf8?'
p446
g20
(g21
g22
(dp447
g200
I1
stp448
Rp449
tp450
bssg243
(dp451
g5
g6
(g7
g8
g9
g10
tp452
Rp453
(I1
(tg16
I00
S'\x04M\xbc\xebW\x94\xa6A'
p454
g20
(g21
g22
(dp455
g262
I1
stp456
Rp457
tp458
bsg143
g315
(g318
S'\xb2\x01\x00\x00\x00\x00\x00\x00'
p459
tp460
Rp461
sg324
(lp462
(dp463
g143
I43
sg327
F11.6
sg328
F76.0662868819032
sg329
V/api/1/source/25442/
p464
sg151
F32.9
sa(dp465
g143
I19
sg327
F10.0
sg328
F43.58898943540674
sg329
V/api/1/source/25444/
p466
sg151
F128.0
sa(dp467
g143
I22
sg327
F16.0
sg328
F75.04665215717488
sg329
V/api/1/source/25445/
p468
sg151
F115.0
sa(dp469
g143
I10
sg327
F10.0
sg328
F31.622776601683796
sg329
V/api/1/source/25447/
p470
sg151
F124.0
sa(dp471
g143
I3
sg327
F4.0
sg328
F6.928203230275509
sg329
V/api/1/source/25449/
p472
sg151
F107.0
sa(dp473
g143
I5
sg327
F36.1
sg328
F80.72205398774241
sg329
V/api/1/source/25451/
p474
sg151
F208.7
sa(dp475
g143
I8
sg327
F16.6
sg328
F46.95189027078676
sg329
V/api/1/source/25453/
p476
sg151
F118.0
sa(dp477
g143
I30
sg327
F4.0
sg328
F21.908902300206645
sg329
V/api/1/source/25454/
p478
sg151
F68.0
sa(dp479
g143
I29
sg327
F5.6
sg328
F30.156922919953217
sg329
V/api/1/source/25455/
p480
sg151
F59.0
sa(dp481
g143
I45
sg327
F33.0
sg328
F221.3707297724792
sg329
V/api/1/source/25456/
p482
sg151
F236.0
sa(dp483
g143
I13
sg327
F7.8
sg328
F28.123299948619113
sg329
V/api/1/source/25457/
p484
sg151
F103.0
sa(dp485
g143
I57
sg327
F13.0
sg328
F98.14784765851975
sg329
V/api/1/source/25458/
p486
sg151
F214.0
sa(dp487
g143
I7
sg327
F20.3
sg328
F53.708751614611195
sg329
V/api/1/source/25459/
p488
sg151
F47.4
sa(dp489
g143
I20
sg327
F110.0
sg328
F491.93495504995377
sg329
V/api/1/source/25477/
p490
sg151
F240.0
sa(dp491
g143
I35
sg327
F23.0
sg328
F136.06983501129116
sg329
V/api/1/source/25478/
p492
sg151
F299.0
sa(dp493
g143
I5
sg327
F3.1304951684997055
sg328
F7.0
sg329
V/api/1/source/25497/
p494
sg151
F19.0
sa(dp495
g143
I48
sg327
F53.4
sg328
F369.96605249671217
sg329
V/api/1/source/47396/
p496
sg151
F128.2
sa(dp497
g143
I35
sg327
F6.845749463300984
sg328
F40.5
sg329
V/api/1/source/48042/
p498
sg151
F94.3
sasg151
g6
(g7
g8
g9
g10
tp499
Rp500
(I1
(tg16
I00
S'\x90\xf6G[\x80L\xa1A'
p501
g20
(g21
g22
(dp502
g262
I1
stp503
Rp504
tp505
bssg282
(dp506
g5
g6
(g7
g8
g9
g10
tp507
Rp508
(I1
(tg16
I00
S'a\x8a\xde\x89\xac6I@'
p509
g20
(g21
g22
(dp510
g137
I1
stp511
Rp512
tp513
bsg143
g315
(g318
S'd\x00\x00\x00\x00\x00\x00\x00'
p514
tp515
Rp516
sg324
(lp517
(dp518
g143
I7
sg327
F4.0
sg328
F10.583005244258363
sg329
V/api/1/source/25443/
p519
sg151
F67.0
sa(dp520
g143
I45
sg327
F1.0
sg328
F6.708203932499369
sg329
V/api/1/source/25456/
p521
sg151
F75.0
sa(dp522
g143
I48
sg327
F10.4
sg328
F72.05331359486529
sg329
V/api/1/source/47396/
p523
sg151
F63.2
sasg151
g6
(g7
g8
g9
g10
tp524
Rp525
(I1
(tg16
I00
S'\x8cl\xe7\xfb\xa91Q@'
p526
g20
(g21
g22
(dp527
g137
I1
stp528
Rp529
tp530
bsssS'UserDefined'
p531
(dp532
g3
(dp533
g5
g6
(g7
g8
g9
g10
tp534
Rp535
(I1
(tg16
I00
S'\xf5\xdb\xd7\x81s\xc6\x0c@'
p536
g20
(g21
g22
(dp537
g137
I1
stp538
Rp539
tp540
bsg143
I295
sg151
g6
(g7
g8
g9
g10
tp541
Rp542
(I1
(tg16
I00
S'\x14\xaeG\xe1ztK\xc0'
p543
g20
(g21
g22
(dp544
g137
I1
stp545
Rp546
tp547
bssg159
(dp548
g5
g6
(g7
g8
g9
g10
tp549
Rp550
(I1
(tg16
I00
S'\xdb\xf9~j\xbct\x0f@'
p551
g20
(g21
g22
(dp552
g137
I1
stp553
Rp554
tp555
bsg143
I8
sg151
g6
(g7
g8
g9
g10
tp556
Rp557
(I1
(tg16
I00
S'\\\x8f\xc2\xf5(<H\xc0'
p558
g20
(g21
g22
(dp559
g137
I1
stp560
Rp561
tp562
bssg182
(dp563
g5
g6
(g7
g8
g9
g10
tp564
Rp565
(I1
(tg16
I00
S"\x00\x00\x00\x00\x00\x80'@"
p566
g20
(g21
g22
(dp567
g200
I1
stp568
Rp569
tp570
bsg143
I66
sg151
g6
(g7
g8
g9
g10
tp571
Rp572
(I1
(tg16
I00
S'\x8cJ\xea\x044\xc9;@'
p573
g20
(g21
g22
(dp574
g200
I1
stp575
Rp576
tp577
bssg220
(dp578
g5
g6
(g7
g8
g9
g10
tp579
Rp580
(I1
(tg16
I00
S'~SX\xa9\xa0\xa2\xc2?'
p581
g20
(g21
g22
(dp582
g200
I1
stp583
Rp584
tp585
bsg143
I64
sg151
g6
(g7
g8
g9
g10
tp586
Rp587
(I1
(tg16
I00
S'\x98n\x12\x83\xc0\xca\xfb?'
p588
g20
(g21
g22
(dp589
g200
I1
stp590
Rp591
tp592
bssg243
(dp593
g5
g6
(g7
g8
g9
g10
tp594
Rp595
(I1
(tg16
I00
S"\x00\x00\x00\x00'\xc0\x83A"
p596
g20
(g21
g22
(dp597
g262
I1
stp598
Rp599
tp600
bsg143
I386
sg151
g6
(g7
g8
g9
g10
tp601
Rp602
(I1
(tg16
I00
S'\x00\x00\x00\xc0Y\xd6\x94A'
p603
g20
(g21
g22
(dp604
g262
I1
stp605
Rp606
tp607
bssg282
(dp608
g5
g6
(g7
g8
g9
g10
tp609
Rp610
(I1
(tg16
I00
S'\x14\xaeG\xe1z\x14\xfe?'
p611
g20
(g21
g22
(dp612
g137
I1
stp613
Rp614
tp615
bsg143
I52
sg151
g6
(g7
g8
g9
g10
tp616
Rp617
(I1
(tg16
I00
S'`\xe5\xd0"\xdb\xa1R@'
p618
g20
(g21
g22
(dp619
g137
I1
stp620
Rp621
tp622
bsss.