(dp0
S'Shen1999'
p1
(dp2
S'Resting potential test'
p3
cquantities.quantity
_reconstruct_quantity
p4
(cquantities.quantity
Quantity
p5
cnumpy
ndarray
p6
(I0
tp7
S'b'
p8
tp9
Rp10
(I1
(tcnumpy
dtype
p11
(S'f8'
p12
I0
I1
tp13
Rp14
(I3
S'<'
p15
NNNI-1
I-1
I0
tp16
bI00
S'\xea\xe1\x03\x00\x00@P\xc0'
p17
ccopy_reg
_reconstructor
p18
(cquantities.dimensionality
Dimensionality
p19
c__builtin__
dict
p20
(dp21
cquantities.unitquantity
UnitQuantity
p22
(S'millivolt'
p23
g4
(g5
g6
g7
g8
tp24
Rp25
(I1
(tg14
I00
S'\xfc\xa9\xf1\xd2MbP?'
p26
g18
(g19
g20
(dp27
g22
(S'volt'
p28
g4
(g5
g6
g7
g8
tp29
Rp30
(I1
(tg14
I00
S'\x00\x00\x00\x00\x00\x00\xf0?'
p31
g18
(g19
g20
(dp32
g22
(S'coulomb'
p33
g4
(g5
g6
g7
g8
tp34
Rp35
(I1
(tg14
I00
S'\x00\x00\x00\x00\x00\x00\xf0?'
p36
g18
(g19
g20
(dp37
cquantities.unitquantity
UnitCurrent
p38
(S'ampere'
p39
NS'A'
p40
N(lp41
S'amp'
p42
aS'amps'
p43
aS'amperes'
p44
aNtp45
Rp46
(I1
(I4
I96
tp47
tp48
bI1
scquantities.unitquantity
UnitTime
p49
(S'second'
p50
NS's'
p51
N(lp52
S'sec'
p53
aS'seconds'
p54
aNtp55
Rp56
(I1
(I3
I0
tp57
tp58
bI1
stp59
Rp60
tp61
bS'C'
p62
N(lp63
Ntp64
Rp65
(I1
(I90
I99
tp66
tp67
bI-1
sg22
(S'joule'
p68
g4
(g5
g6
g7
g8
tp69
Rp70
(I1
(tg14
I00
S'\x00\x00\x00\x00\x00\x00\xf0?'
p71
g18
(g19
g20
(dp72
g22
(S'newton'
p73
g4
(g5
g6
g7
g8
tp74
Rp75
(I1
(tg14
I00
S'\x00\x00\x00\x00\x00\x00\xf0?'
p76
g18
(g19
g20
(dp77
g56
I-2
scquantities.unitquantity
UnitMass
p78
(S'kilogram'
p79
NS'kg'
p80
N(lp81
S'kilograms'
p82
aNtp83
Rp84
(I1
(I1
I63
tp85
tp86
bI1
scquantities.unitquantity
UnitLength
p87
(S'meter'
p88
NS'm'
p89
N(lp90
S'meters'
p91
aS'metre'
p92
aS'metres'
p93
aNtp94
Rp95
(I1
(I2
I2
tp96
tp97
bI1
stp98
Rp99
tp100
bS'N'
p101
N(lp102
S'newtons'
p103
aNtp104
Rp105
(I1
(I90
I66
tp106
tp107
bI1
sg95
I1
stp108
Rp109
tp110
bS'J'
p111
N(lp112
S'joules'
p113
aNtp114
Rp115
(I1
(I90
I76
tp116
tp117
bI1
stp118
Rp119
tp120
bS'V'
p121
N(lp122
S'volts'
p123
aNtp124
Rp125
(I1
(I90
I100
tp126
tp127
bI1
stp128
Rp129
tp130
bS'mV'
p131
N(lp132
S'millivolts'
p133
aNtp134
Rp135
(I1
(I90
I102
tp136
tp137
bI1
stp138
Rp139
tp140
bsS'Injected current AP threshold test'
p141
g4
(g5
g6
g7
g8
tp142
Rp143
(I1
(tg14
I00
S'\\\xa6\xc7Jw\xd1E\xc0'
p144
g18
(g19
g20
(dp145
g135
I1
stp146
Rp147
tp148
bsS'Time constant test'
p149
g4
(g5
g6
g7
g8
tp150
Rp151
(I1
(tg14
I00
S'L\x86\xd8c\xa9\xa66@'
p152
g18
(g19
g20
(dp153
g49
(S'millisecond'
p154
g4
(g5
g6
g7
g8
tp155
Rp156
(I1
(tg14
I00
S'\xfc\xa9\xf1\xd2MbP?'
p157
g18
(g19
g20
(dp158
g56
I1
stp159
Rp160
tp161
bS'ms'
p162
N(lp163
S'milliseconds'
p164
aNtp165
Rp166
(I1
(I3
I1
tp167
tp168
bI1
stp169
Rp170
tp171
bsS'Injected current AP width test'
p172
g4
(g5
g6
g7
g8
tp173
Rp174
(I1
(tg14
I00
S'\x00\x00\x00\x00\x00\x00\xeb?'
p175
g18
(g19
g20
(dp176
g166
I1
stp177
Rp178
tp179
bsS'Input resistance test'
p180
g4
(g5
g6
g7
g8
tp181
Rp182
(I1
(tg14
I00
S'HfVNA\xdd\x90A'
p183
g18
(g19
g20
(dp184
g46
cnumpy.core.multiarray
scalar
p185
(g11
(S'i8'
p186
I0
I1
tp187
Rp188
(I3
S'<'
p189
NNNI-1
I-1
I0
tp190
bS'\xfe\xff\xff\xff\xff\xff\xff\xff'
p191
tp192
Rp193
sg56
g185
(g188
S'\xfd\xff\xff\xff\xff\xff\xff\xff'
p194
tp195
Rp196
sg84
I1
sg95
I2
stp197
Rp198
tp199
bsS'Injected current AP amplitude test'
p200
g4
(g5
g6
g7
g8
tp201
Rp202
(I1
(tg14
I00
S'\xb0NT\xaa\xab\xaaM@'
p203
g18
(g19
g20
(dp204
g135
I1
stp205
Rp206
tp207
bssS'Migliore2014'
p208
(dp209
S'Resting potential test'
p210
g4
(g5
g6
g7
g8
tp211
Rp212
(I1
(tg11
(S'f8'
p213
I0
I1
tp214
Rp215
(I3
S'<'
p216
NNNI-1
I-1
I0
tp217
bI00
S'\xd9`\xd7e5\xd0P\xc0'
p218
g18
(g19
g20
(dp219
g22
(S'millivolt'
p220
g4
(g5
g6
g7
g8
tp221
Rp222
(I1
(tg215
I00
S'\xfc\xa9\xf1\xd2MbP?'
p223
g18
(g19
g20
(dp224
g22
(S'volt'
p225
g4
(g5
g6
g7
g8
tp226
Rp227
(I1
(tg215
I00
S'\x00\x00\x00\x00\x00\x00\xf0?'
p228
g18
(g19
g20
(dp229
g22
(S'coulomb'
p230
g4
(g5
g6
g7
g8
tp231
Rp232
(I1
(tg215
I00
S'\x00\x00\x00\x00\x00\x00\xf0?'
p233
g18
(g19
g20
(dp234
g38
(S'ampere'
p235
NS'A'
p236
N(lp237
S'amp'
p238
aS'amps'
p239
aS'amperes'
p240
aNtp241
Rp242
(I1
(I4
I96
tp243
tp244
bI1
sg49
(S'second'
p245
NS's'
p246
N(lp247
S'sec'
p248
aS'seconds'
p249
aNtp250
Rp251
(I1
(I3
I0
tp252
tp253
bI1
stp254
Rp255
tp256
bS'C'
p257
N(lp258
Ntp259
Rp260
(I1
(I90
I99
tp261
tp262
bI-1
sg22
(S'joule'
p263
g4
(g5
g6
g7
g8
tp264
Rp265
(I1
(tg215
I00
S'\x00\x00\x00\x00\x00\x00\xf0?'
p266
g18
(g19
g20
(dp267
g22
(S'newton'
p268
g4
(g5
g6
g7
g8
tp269
Rp270
(I1
(tg215
I00
S'\x00\x00\x00\x00\x00\x00\xf0?'
p271
g18
(g19
g20
(dp272
g251
I-2
sg78
(S'kilogram'
p273
NS'kg'
p274
N(lp275
S'kilograms'
p276
aNtp277
Rp278
(I1
(I1
I63
tp279
tp280
bI1
sg87
(S'meter'
p281
NS'm'
p282
N(lp283
S'meters'
p284
aS'metre'
p285
aS'metres'
p286
aNtp287
Rp288
(I1
(I2
I2
tp289
tp290
bI1
stp291
Rp292
tp293
bS'N'
p294
N(lp295
S'newtons'
p296
aNtp297
Rp298
(I1
(I90
I66
tp299
tp300
bI1
sg288
I1
stp301
Rp302
tp303
bS'J'
p304
N(lp305
S'joules'
p306
aNtp307
Rp308
(I1
(I90
I76
tp309
tp310
bI1
stp311
Rp312
tp313
bS'V'
p314
N(lp315
S'volts'
p316
aNtp317
Rp318
(I1
(I90
I100
tp319
tp320
bI1
stp321
Rp322
tp323
bS'mV'
p324
N(lp325
S'millivolts'
p326
aNtp327
Rp328
(I1
(I90
I102
tp329
tp330
bI1
stp331
Rp332
tp333
bsS'Injected current AP threshold test'
p334
g4
(g5
g6
g7
g8
tp335
Rp336
(I1
(tg215
I00
S"\xbfi<\xde'\xdbG\xc0"
p337
g18
(g19
g20
(dp338
g328
I1
stp339
Rp340
tp341
bsS'Time constant test'
p342
g4
(g5
g6
g7
g8
tp343
Rp344
(I1
(tg215
I00
S'\xdd\x1b\x8d\x06a\xab&@'
p345
g18
(g19
g20
(dp346
g49
(S'millisecond'
p347
g4
(g5
g6
g7
g8
tp348
Rp349
(I1
(tg215
I00
S'\xfc\xa9\xf1\xd2MbP?'
p350
g18
(g19
g20
(dp351
g251
I1
stp352
Rp353
tp354
bS'ms'
p355
N(lp356
S'milliseconds'
p357
aNtp358
Rp359
(I1
(I3
I1
tp360
tp361
bI1
stp362
Rp363
tp364
bsS'Injected current AP width test'
p365
g4
(g5
g6
g7
g8
tp366
Rp367
(I1
(tg215
I00
S'\x00\x00\x00\x00\x00\x00\xfa?'
p368
g18
(g19
g20
(dp369
g359
I1
stp370
Rp371
tp372
bsS'Input resistance test'
p373
g4
(g5
g6
g7
g8
tp374
Rp375
(I1
(tg215
I00
S'&$\xe3\xbd\xd8{oA'
p376
g18
(g19
g20
(dp377
g242
g185
(g188
S'\xfe\xff\xff\xff\xff\xff\xff\xff'
p378
tp379
Rp380
sg251
g185
(g188
S'\xfd\xff\xff\xff\xff\xff\xff\xff'
p381
tp382
Rp383
sg278
I1
sg288
I2
stp384
Rp385
tp386
bsS'Injected current AP amplitude test'
p387
g4
(g5
g6
g7
g8
tp388
Rp389
(I1
(tg215
I00
S'\x1f\x04\x84 \xb1\xa3V@'
p390
g18
(g19
g20
(dp391
g328
I1
stp392
Rp393
tp394
bssS'BhallaBower1993'
p395
(dp396
S'Resting potential test'
p397
g4
(g5
g6
g7
g8
tp398
Rp399
(I1
(tg11
(S'f8'
p400
I0
I1
tp401
Rp402
(I3
S'<'
p403
NNNI-1
I-1
I0
tp404
bI00
S'\xd1PW\x05\xabuP\xc0'
p405
g18
(g19
g20
(dp406
g22
(S'millivolt'
p407
g4
(g5
g6
g7
g8
tp408
Rp409
(I1
(tg402
I00
S'\xfc\xa9\xf1\xd2MbP?'
p410
g18
(g19
g20
(dp411
g22
(S'volt'
p412
g4
(g5
g6
g7
g8
tp413
Rp414
(I1
(tg402
I00
S'\x00\x00\x00\x00\x00\x00\xf0?'
p415
g18
(g19
g20
(dp416
g22
(S'coulomb'
p417
g4
(g5
g6
g7
g8
tp418
Rp419
(I1
(tg402
I00
S'\x00\x00\x00\x00\x00\x00\xf0?'
p420
g18
(g19
g20
(dp421
g38
(S'ampere'
p422
NS'A'
p423
N(lp424
S'amp'
p425
aS'amps'
p426
aS'amperes'
p427
aNtp428
Rp429
(I1
(I4
I96
tp430
tp431
bI1
sg49
(S'second'
p432
NS's'
p433
N(lp434
S'sec'
p435
aS'seconds'
p436
aNtp437
Rp438
(I1
(I3
I0
tp439
tp440
bI1
stp441
Rp442
tp443
bS'C'
p444
N(lp445
Ntp446
Rp447
(I1
(I90
I99
tp448
tp449
bI-1
sg22
(S'joule'
p450
g4
(g5
g6
g7
g8
tp451
Rp452
(I1
(tg402
I00
S'\x00\x00\x00\x00\x00\x00\xf0?'
p453
g18
(g19
g20
(dp454
g22
(S'newton'
p455
g4
(g5
g6
g7
g8
tp456
Rp457
(I1
(tg402
I00
S'\x00\x00\x00\x00\x00\x00\xf0?'
p458
g18
(g19
g20
(dp459
g438
I-2
sg78
(S'kilogram'
p460
NS'kg'
p461
N(lp462
S'kilograms'
p463
aNtp464
Rp465
(I1
(I1
I63
tp466
tp467
bI1
sg87
(S'meter'
p468
NS'm'
p469
N(lp470
S'meters'
p471
aS'metre'
p472
aS'metres'
p473
aNtp474
Rp475
(I1
(I2
I2
tp476
tp477
bI1
stp478
Rp479
tp480
bS'N'
p481
N(lp482
S'newtons'
p483
aNtp484
Rp485
(I1
(I90
I66
tp486
tp487
bI1
sg475
I1
stp488
Rp489
tp490
bS'J'
p491
N(lp492
S'joules'
p493
aNtp494
Rp495
(I1
(I90
I76
tp496
tp497
bI1
stp498
Rp499
tp500
bS'V'
p501
N(lp502
S'volts'
p503
aNtp504
Rp505
(I1
(I90
I100
tp506
tp507
bI1
stp508
Rp509
tp510
bS'mV'
p511
N(lp512
S'millivolts'
p513
aNtp514
Rp515
(I1
(I90
I102
tp516
tp517
bI1
stp518
Rp519
tp520
bsS'Injected current AP threshold test'
p521
g4
(g5
g6
g7
g8
tp522
Rp523
(I1
(tg402
I00
S'\x7ft\xf8\xd2\xda,D\xc0'
p524
g18
(g19
g20
(dp525
g515
I1
stp526
Rp527
tp528
bsS'Time constant test'
p529
g4
(g5
g6
g7
g8
tp530
Rp531
(I1
(tg402
I00
S'\xb7\xe1c\xeb\xaa\xffE@'
p532
g18
(g19
g20
(dp533
g49
(S'millisecond'
p534
g4
(g5
g6
g7
g8
tp535
Rp536
(I1
(tg402
I00
S'\xfc\xa9\xf1\xd2MbP?'
p537
g18
(g19
g20
(dp538
g438
I1
stp539
Rp540
tp541
bS'ms'
p542
N(lp543
S'milliseconds'
p544
aNtp545
Rp546
(I1
(I3
I1
tp547
tp548
bI1
stp549
Rp550
tp551
bsS'Input resistance test'
p552
g4
(g5
g6
g7
g8
tp553
Rp554
(I1
(tg402
I00
S'\xb6\x01{\x87\x9a\xb0\x88A'
p555
g18
(g19
g20
(dp556
g429
g185
(g188
S'\xfe\xff\xff\xff\xff\xff\xff\xff'
p557
tp558
Rp559
sg438
g185
(g188
S'\xfd\xff\xff\xff\xff\xff\xff\xff'
p560
tp561
Rp562
sg465
I1
sg475
I2
stp563
Rp564
tp565
bsS'Injected current AP width test'
p566
g4
(g5
g6
g7
g8
tp567
Rp568
(I1
(tg402
I00
S'\x11\x11\x11\x11\x11\x11\xe1?'
p569
g18
(g19
g20
(dp570
g546
I1
stp571
Rp572
tp573
bsS'Injected current AP amplitude test'
p574
g4
(g5
g6
g7
g8
tp575
Rp576
(I1
(tg402
I00
S"\x86\x8f\x01'\xf0\xd4Q@"
p577
g18
(g19
g20
(dp578
g515
I1
stp579
Rp580
tp581
bssS'Chen2002'
p582
(dp583
S'Resting potential test'
p584
g4
(g5
g6
g7
g8
tp585
Rp586
(I1
(tg11
(S'f8'
p587
I0
I1
tp588
Rp589
(I3
S'<'
p590
NNNI-1
I-1
I0
tp591
bI00
S'\x00\x00\x00\x00\x00@P\xc0'
p592
g18
(g19
g20
(dp593
g22
(S'millivolt'
p594
g4
(g5
g6
g7
g8
tp595
Rp596
(I1
(tg589
I00
S'\xfc\xa9\xf1\xd2MbP?'
p597
g18
(g19
g20
(dp598
g22
(S'volt'
p599
g4
(g5
g6
g7
g8
tp600
Rp601
(I1
(tg589
I00
S'\x00\x00\x00\x00\x00\x00\xf0?'
p602
g18
(g19
g20
(dp603
g22
(S'coulomb'
p604
g4
(g5
g6
g7
g8
tp605
Rp606
(I1
(tg589
I00
S'\x00\x00\x00\x00\x00\x00\xf0?'
p607
g18
(g19
g20
(dp608
g38
(S'ampere'
p609
NS'A'
p610
N(lp611
S'amp'
p612
aS'amps'
p613
aS'amperes'
p614
aNtp615
Rp616
(I1
(I4
I96
tp617
tp618
bI1
sg49
(S'second'
p619
NS's'
p620
N(lp621
S'sec'
p622
aS'seconds'
p623
aNtp624
Rp625
(I1
(I3
I0
tp626
tp627
bI1
stp628
Rp629
tp630
bS'C'
p631
N(lp632
Ntp633
Rp634
(I1
(I90
I99
tp635
tp636
bI-1
sg22
(S'joule'
p637
g4
(g5
g6
g7
g8
tp638
Rp639
(I1
(tg589
I00
S'\x00\x00\x00\x00\x00\x00\xf0?'
p640
g18
(g19
g20
(dp641
g22
(S'newton'
p642
g4
(g5
g6
g7
g8
tp643
Rp644
(I1
(tg589
I00
S'\x00\x00\x00\x00\x00\x00\xf0?'
p645
g18
(g19
g20
(dp646
g625
I-2
sg78
(S'kilogram'
p647
NS'kg'
p648
N(lp649
S'kilograms'
p650
aNtp651
Rp652
(I1
(I1
I63
tp653
tp654
bI1
sg87
(S'meter'
p655
NS'm'
p656
N(lp657
S'meters'
p658
aS'metre'
p659
aS'metres'
p660
aNtp661
Rp662
(I1
(I2
I2
tp663
tp664
bI1
stp665
Rp666
tp667
bS'N'
p668
N(lp669
S'newtons'
p670
aNtp671
Rp672
(I1
(I90
I66
tp673
tp674
bI1
sg662
I1
stp675
Rp676
tp677
bS'J'
p678
N(lp679
S'joules'
p680
aNtp681
Rp682
(I1
(I90
I76
tp683
tp684
bI1
stp685
Rp686
tp687
bS'V'
p688
N(lp689
S'volts'
p690
aNtp691
Rp692
(I1
(I90
I100
tp693
tp694
bI1
stp695
Rp696
tp697
bS'mV'
p698
N(lp699
S'millivolts'
p700
aNtp701
Rp702
(I1
(I90
I102
tp703
tp704
bI1
stp705
Rp706
tp707
bsS'Injected current AP threshold test'
p708
g4
(g5
g6
g7
g8
tp709
Rp710
(I1
(tg589
I00
S'\x82\x89F\x81\x82\xc3I\xc0'
p711
g18
(g19
g20
(dp712
g702
I1
stp713
Rp714
tp715
bsS'Time constant test'
p716
g4
(g5
g6
g7
g8
tp717
Rp718
(I1
(tg589
I00
S'\xd6\x93\xf1\xab8\xd25@'
p719
g18
(g19
g20
(dp720
g49
(S'millisecond'
p721
g4
(g5
g6
g7
g8
tp722
Rp723
(I1
(tg589
I00
S'\xfc\xa9\xf1\xd2MbP?'
p724
g18
(g19
g20
(dp725
g625
I1
stp726
Rp727
tp728
bS'ms'
p729
N(lp730
S'milliseconds'
p731
aNtp732
Rp733
(I1
(I3
I1
tp734
tp735
bI1
stp736
Rp737
tp738
bsS'Injected current AP width test'
p739
g4
(g5
g6
g7
g8
tp740
Rp741
(I1
(tg589
I00
S'433333\xe7?'
p742
g18
(g19
g20
(dp743
g733
I1
stp744
Rp745
tp746
bsS'Input resistance test'
p747
g4
(g5
g6
g7
g8
tp748
Rp749
(I1
(tg589
I00
S'\xb7.\xef\xa7\xb81\x96A'
p750
g18
(g19
g20
(dp751
g616
g185
(g188
S'\xfe\xff\xff\xff\xff\xff\xff\xff'
p752
tp753
Rp754
sg625
g185
(g188
S'\xfd\xff\xff\xff\xff\xff\xff\xff'
p755
tp756
Rp757
sg652
I1
sg662
I2
stp758
Rp759
tp760
bsS'Injected current AP amplitude test'
p761
g4
(g5
g6
g7
g8
tp762
Rp763
(I1
(tg589
I00
S'D\xde\xd4\x80\x8dXQ@'
p764
g18
(g19
g20
(dp765
g702
I1
stp766
Rp767
tp768
bssS'Davison2003'
p769
(dp770
S'Resting potential test'
p771
g4
(g5
g6
g7
g8
tp772
Rp773
(I1
(tg11
(S'f8'
p774
I0
I1
tp775
Rp776
(I3
S'<'
p777
NNNI-1
I-1
I0
tp778
bI00
S'R\x9c\xd0\xb8\x9djP\xc0'
p779
g18
(g19
g20
(dp780
g22
(S'millivolt'
p781
g4
(g5
g6
g7
g8
tp782
Rp783
(I1
(tg776
I00
S'\xfc\xa9\xf1\xd2MbP?'
p784
g18
(g19
g20
(dp785
g22
(S'volt'
p786
g4
(g5
g6
g7
g8
tp787
Rp788
(I1
(tg776
I00
S'\x00\x00\x00\x00\x00\x00\xf0?'
p789
g18
(g19
g20
(dp790
g22
(S'coulomb'
p791
g4
(g5
g6
g7
g8
tp792
Rp793
(I1
(tg776
I00
S'\x00\x00\x00\x00\x00\x00\xf0?'
p794
g18
(g19
g20
(dp795
g38
(S'ampere'
p796
NS'A'
p797
N(lp798
S'amp'
p799
aS'amps'
p800
aS'amperes'
p801
aNtp802
Rp803
(I1
(I4
I96
tp804
tp805
bI1
sg49
(S'second'
p806
NS's'
p807
N(lp808
S'sec'
p809
aS'seconds'
p810
aNtp811
Rp812
(I1
(I3
I0
tp813
tp814
bI1
stp815
Rp816
tp817
bS'C'
p818
N(lp819
Ntp820
Rp821
(I1
(I90
I99
tp822
tp823
bI-1
sg22
(S'joule'
p824
g4
(g5
g6
g7
g8
tp825
Rp826
(I1
(tg776
I00
S'\x00\x00\x00\x00\x00\x00\xf0?'
p827
g18
(g19
g20
(dp828
g22
(S'newton'
p829
g4
(g5
g6
g7
g8
tp830
Rp831
(I1
(tg776
I00
S'\x00\x00\x00\x00\x00\x00\xf0?'
p832
g18
(g19
g20
(dp833
g812
I-2
sg78
(S'kilogram'
p834
NS'kg'
p835
N(lp836
S'kilograms'
p837
aNtp838
Rp839
(I1
(I1
I63
tp840
tp841
bI1
sg87
(S'meter'
p842
NS'm'
p843
N(lp844
S'meters'
p845
aS'metre'
p846
aS'metres'
p847
aNtp848
Rp849
(I1
(I2
I2
tp850
tp851
bI1
stp852
Rp853
tp854
bS'N'
p855
N(lp856
S'newtons'
p857
aNtp858
Rp859
(I1
(I90
I66
tp860
tp861
bI1
sg849
I1
stp862
Rp863
tp864
bS'J'
p865
N(lp866
S'joules'
p867
aNtp868
Rp869
(I1
(I90
I76
tp870
tp871
bI1
stp872
Rp873
tp874
bS'V'
p875
N(lp876
S'volts'
p877
aNtp878
Rp879
(I1
(I90
I100
tp880
tp881
bI1
stp882
Rp883
tp884
bS'mV'
p885
N(lp886
S'millivolts'
p887
aNtp888
Rp889
(I1
(I90
I102
tp890
tp891
bI1
stp892
Rp893
tp894
bsS'Injected current AP threshold test'
p895
g4
(g5
g6
g7
g8
tp896
Rp897
(I1
(tg776
I00
S't\xfcGH\xc6\x8fA\xc0'
p898
g18
(g19
g20
(dp899
g889
I1
stp900
Rp901
tp902
bsS'Time constant test'
p903
g4
(g5
g6
g7
g8
tp904
Rp905
(I1
(tg776
I00
S'O\xa6\x9d\x1b\x10\xb2S@'
p906
g18
(g19
g20
(dp907
g49
(S'millisecond'
p908
g4
(g5
g6
g7
g8
tp909
Rp910
(I1
(tg776
I00
S'\xfc\xa9\xf1\xd2MbP?'
p911
g18
(g19
g20
(dp912
g812
I1
stp913
Rp914
tp915
bS'ms'
p916
N(lp917
S'milliseconds'
p918
aNtp919
Rp920
(I1
(I3
I1
tp921
tp922
bI1
stp923
Rp924
tp925
bsS'Input resistance test'
p926
g4
(g5
g6
g7
g8
tp927
Rp928
(I1
(tg776
I00
S'\x7f\xa8~$x\xb5\x92A'
p929
g18
(g19
g20
(dp930
g803
g185
(g188
S'\xfe\xff\xff\xff\xff\xff\xff\xff'
p931
tp932
Rp933
sg812
g185
(g188
S'\xfd\xff\xff\xff\xff\xff\xff\xff'
p934
tp935
Rp936
sg839
I1
sg849
I2
stp937
Rp938
tp939
bsS'Injected current AP width test'
p940
g4
(g5
g6
g7
g8
tp941
Rp942
(I1
(tg776
I00
S'433333\xdb?'
p943
g18
(g19
g20
(dp944
g920
I1
stp945
Rp946
tp947
bsS'Injected current AP amplitude test'
p948
g4
(g5
g6
g7
g8
tp949
Rp950
(I1
(tg776
I00
S'\x81\xc7\x8e\xa5m\x06Q@'
p951
g18
(g19
g20
(dp952
g889
I1
stp953
Rp954
tp955
bssS'LiCleland2013'
p956
(dp957
S'Resting potential test'
p958
g4
(g5
g6
g7
g8
tp959
Rp960
(I1
(tg11
(S'f8'
p961
I0
I1
tp962
Rp963
(I3
S'<'
p964
NNNI-1
I-1
I0
tp965
bI00
S'\xb0\xfd}\x9f\x1f=Q\xc0'
p966
g18
(g19
g20
(dp967
g22
(S'millivolt'
p968
g4
(g5
g6
g7
g8
tp969
Rp970
(I1
(tg963
I00
S'\xfc\xa9\xf1\xd2MbP?'
p971
g18
(g19
g20
(dp972
g22
(S'volt'
p973
g4
(g5
g6
g7
g8
tp974
Rp975
(I1
(tg963
I00
S'\x00\x00\x00\x00\x00\x00\xf0?'
p976
g18
(g19
g20
(dp977
g22
(S'coulomb'
p978
g4
(g5
g6
g7
g8
tp979
Rp980
(I1
(tg963
I00
S'\x00\x00\x00\x00\x00\x00\xf0?'
p981
g18
(g19
g20
(dp982
g38
(S'ampere'
p983
NS'A'
p984
N(lp985
S'amp'
p986
aS'amps'
p987
aS'amperes'
p988
aNtp989
Rp990
(I1
(I4
I96
tp991
tp992
bI1
sg49
(S'second'
p993
NS's'
p994
N(lp995
S'sec'
p996
aS'seconds'
p997
aNtp998
Rp999
(I1
(I3
I0
tp1000
tp1001
bI1
stp1002
Rp1003
tp1004
bS'C'
p1005
N(lp1006
Ntp1007
Rp1008
(I1
(I90
I99
tp1009
tp1010
bI-1
sg22
(S'joule'
p1011
g4
(g5
g6
g7
g8
tp1012
Rp1013
(I1
(tg963
I00
S'\x00\x00\x00\x00\x00\x00\xf0?'
p1014
g18
(g19
g20
(dp1015
g22
(S'newton'
p1016
g4
(g5
g6
g7
g8
tp1017
Rp1018
(I1
(tg963
I00
S'\x00\x00\x00\x00\x00\x00\xf0?'
p1019
g18
(g19
g20
(dp1020
g999
I-2
sg78
(S'kilogram'
p1021
NS'kg'
p1022
N(lp1023
S'kilograms'
p1024
aNtp1025
Rp1026
(I1
(I1
I63
tp1027
tp1028
bI1
sg87
(S'meter'
p1029
NS'm'
p1030
N(lp1031
S'meters'
p1032
aS'metre'
p1033
aS'metres'
p1034
aNtp1035
Rp1036
(I1
(I2
I2
tp1037
tp1038
bI1
stp1039
Rp1040
tp1041
bS'N'
p1042
N(lp1043
S'newtons'
p1044
aNtp1045
Rp1046
(I1
(I90
I66
tp1047
tp1048
bI1
sg1036
I1
stp1049
Rp1050
tp1051
bS'J'
p1052
N(lp1053
S'joules'
p1054
aNtp1055
Rp1056
(I1
(I90
I76
tp1057
tp1058
bI1
stp1059
Rp1060
tp1061
bS'V'
p1062
N(lp1063
S'volts'
p1064
aNtp1065
Rp1066
(I1
(I90
I100
tp1067
tp1068
bI1
stp1069
Rp1070
tp1071
bS'mV'
p1072
N(lp1073
S'millivolts'
p1074
aNtp1075
Rp1076
(I1
(I90
I102
tp1077
tp1078
bI1
stp1079
Rp1080
tp1081
bsS'Injected current AP threshold test'
p1082
g4
(g5
g6
g7
g8
tp1083
Rp1084
(I1
(tg963
I00
S'\xc7\x05\xa0\x1a\xae\xa6B\xc0'
p1085
g18
(g19
g20
(dp1086
g1076
I1
stp1087
Rp1088
tp1089
bsS'Time constant test'
p1090
g4
(g5
g6
g7
g8
tp1091
Rp1092
(I1
(tg963
I00
S'\xa3\xa5zg\t\xdaD@'
p1093
g18
(g19
g20
(dp1094
g49
(S'millisecond'
p1095
g4
(g5
g6
g7
g8
tp1096
Rp1097
(I1
(tg963
I00
S'\xfc\xa9\xf1\xd2MbP?'
p1098
g18
(g19
g20
(dp1099
g999
I1
stp1100
Rp1101
tp1102
bS'ms'
p1103
N(lp1104
S'milliseconds'
p1105
aNtp1106
Rp1107
(I1
(I3
I1
tp1108
tp1109
bI1
stp1110
Rp1111
tp1112
bsS'Injected current AP width test'
p1113
g4
(g5
g6
g7
g8
tp1114
Rp1115
(I1
(tg963
I00
S'\xcd\xcc\xcc\xcc\xcc\xcc\xe8?'
p1116
g18
(g19
g20
(dp1117
g1107
I1
stp1118
Rp1119
tp1120
bsS'Input resistance test'
p1121
g4
(g5
g6
g7
g8
tp1122
Rp1123
(I1
(tg963
I00
S'\xbc\x8a\x97\xcf\xfe\x7f\xabA'
p1124
g18
(g19
g20
(dp1125
g990
g185
(g188
S'\xfe\xff\xff\xff\xff\xff\xff\xff'
p1126
tp1127
Rp1128
sg999
g185
(g188
S'\xfd\xff\xff\xff\xff\xff\xff\xff'
p1129
tp1130
Rp1131
sg1026
I1
sg1036
I2
stp1132
Rp1133
tp1134
bsS'Injected current AP amplitude test'
p1135
g4
(g5
g6
g7
g8
tp1136
Rp1137
(I1
(tg963
I00
S'Z{&\x1b\x92UO@'
p1138
g18
(g19
g20
(dp1139
g1076
I1
stp1140
Rp1141
tp1142
bssS'OConnor2012'
p1143
(dp1144
S'Resting potential test'
p1145
g4
(g5
g6
g7
g8
tp1146
Rp1147
(I1
(tg11
(S'f8'
p1148
I0
I1
tp1149
Rp1150
(I3
S'<'
p1151
NNNI-1
I-1
I0
tp1152
bI00
S'\xf8\xf7F?9\xffP\xc0'
p1153
g18
(g19
g20
(dp1154
g22
(S'millivolt'
p1155
g4
(g5
g6
g7
g8
tp1156
Rp1157
(I1
(tg1150
I00
S'\xfc\xa9\xf1\xd2MbP?'
p1158
g18
(g19
g20
(dp1159
g22
(S'volt'
p1160
g4
(g5
g6
g7
g8
tp1161
Rp1162
(I1
(tg1150
I00
S'\x00\x00\x00\x00\x00\x00\xf0?'
p1163
g18
(g19
g20
(dp1164
g22
(S'coulomb'
p1165
g4
(g5
g6
g7
g8
tp1166
Rp1167
(I1
(tg1150
I00
S'\x00\x00\x00\x00\x00\x00\xf0?'
p1168
g18
(g19
g20
(dp1169
g38
(S'ampere'
p1170
NS'A'
p1171
N(lp1172
S'amp'
p1173
aS'amps'
p1174
aS'amperes'
p1175
aNtp1176
Rp1177
(I1
(I4
I96
tp1178
tp1179
bI1
sg49
(S'second'
p1180
NS's'
p1181
N(lp1182
S'sec'
p1183
aS'seconds'
p1184
aNtp1185
Rp1186
(I1
(I3
I0
tp1187
tp1188
bI1
stp1189
Rp1190
tp1191
bS'C'
p1192
N(lp1193
Ntp1194
Rp1195
(I1
(I90
I99
tp1196
tp1197
bI-1
sg22
(S'joule'
p1198
g4
(g5
g6
g7
g8
tp1199
Rp1200
(I1
(tg1150
I00
S'\x00\x00\x00\x00\x00\x00\xf0?'
p1201
g18
(g19
g20
(dp1202
g22
(S'newton'
p1203
g4
(g5
g6
g7
g8
tp1204
Rp1205
(I1
(tg1150
I00
S'\x00\x00\x00\x00\x00\x00\xf0?'
p1206
g18
(g19
g20
(dp1207
g1186
I-2
sg78
(S'kilogram'
p1208
NS'kg'
p1209
N(lp1210
S'kilograms'
p1211
aNtp1212
Rp1213
(I1
(I1
I63
tp1214
tp1215
bI1
sg87
(S'meter'
p1216
NS'm'
p1217
N(lp1218
S'meters'
p1219
aS'metre'
p1220
aS'metres'
p1221
aNtp1222
Rp1223
(I1
(I2
I2
tp1224
tp1225
bI1
stp1226
Rp1227
tp1228
bS'N'
p1229
N(lp1230
S'newtons'
p1231
aNtp1232
Rp1233
(I1
(I90
I66
tp1234
tp1235
bI1
sg1223
I1
stp1236
Rp1237
tp1238
bS'J'
p1239
N(lp1240
S'joules'
p1241
aNtp1242
Rp1243
(I1
(I90
I76
tp1244
tp1245
bI1
stp1246
Rp1247
tp1248
bS'V'
p1249
N(lp1250
S'volts'
p1251
aNtp1252
Rp1253
(I1
(I90
I100
tp1254
tp1255
bI1
stp1256
Rp1257
tp1258
bS'mV'
p1259
N(lp1260
S'millivolts'
p1261
aNtp1262
Rp1263
(I1
(I90
I102
tp1264
tp1265
bI1
stp1266
Rp1267
tp1268
bsS'Injected current AP threshold test'
p1269
g4
(g5
g6
g7
g8
tp1270
Rp1271
(I1
(tg1150
I00
S"\x1d\ru\xab'\xc1F\xc0"
p1272
g18
(g19
g20
(dp1273
g1263
I1
stp1274
Rp1275
tp1276
bsS'Time constant test'
p1277
g4
(g5
g6
g7
g8
tp1278
Rp1279
(I1
(tg1150
I00
S'\x9e\xb7t\xc7\xdap#@'
p1280
g18
(g19
g20
(dp1281
g49
(S'millisecond'
p1282
g4
(g5
g6
g7
g8
tp1283
Rp1284
(I1
(tg1150
I00
S'\xfc\xa9\xf1\xd2MbP?'
p1285
g18
(g19
g20
(dp1286
g1186
I1
stp1287
Rp1288
tp1289
bS'ms'
p1290
N(lp1291
S'milliseconds'
p1292
aNtp1293
Rp1294
(I1
(I3
I1
tp1295
tp1296
bI1
stp1297
Rp1298
tp1299
bsS'Input resistance test'
p1300
g4
(g5
g6
g7
g8
tp1301
Rp1302
(I1
(tg1150
I00
S'\xc4\xe9\x91\x8d#\x9c|A'
p1303
g18
(g19
g20
(dp1304
g1177
g185
(g188
S'\xfe\xff\xff\xff\xff\xff\xff\xff'
p1305
tp1306
Rp1307
sg1186
g185
(g188
S'\xfd\xff\xff\xff\xff\xff\xff\xff'
p1308
tp1309
Rp1310
sg1213
I1
sg1223
I2
stp1311
Rp1312
tp1313
bsS'Injected current AP width test'
p1314
g4
(g5
g6
g7
g8
tp1315
Rp1316
(I1
(tg1150
I00
S'\x00\x00\x00\x00\x000"@'
p1317
g18
(g19
g20
(dp1318
g1294
I1
stp1319
Rp1320
tp1321
bsS'Injected current AP amplitude test'
p1322
g4
(g5
g6
g7
g8
tp1323
Rp1324
(I1
(tg1150
I00
S'\x17y\xf5\x10\x0exX@'
p1325
g18
(g19
g20
(dp1326
g1263
I1
stp1327
Rp1328
tp1329
bssS'MiglioreShepherd2008'
p1330
(dp1331
S'Resting potential test'
p1332
g4
(g5
g6
g7
g8
tp1333
Rp1334
(I1
(tg11
(S'f8'
p1335
I0
I1
tp1336
Rp1337
(I3
S'<'
p1338
NNNI-1
I-1
I0
tp1339
bI00
S'\x02\xbc\x00\x00\x00@P\xc0'
p1340
g18
(g19
g20
(dp1341
g22
(S'millivolt'
p1342
g4
(g5
g6
g7
g8
tp1343
Rp1344
(I1
(tg1337
I00
S'\xfc\xa9\xf1\xd2MbP?'
p1345
g18
(g19
g20
(dp1346
g22
(S'volt'
p1347
g4
(g5
g6
g7
g8
tp1348
Rp1349
(I1
(tg1337
I00
S'\x00\x00\x00\x00\x00\x00\xf0?'
p1350
g18
(g19
g20
(dp1351
g22
(S'coulomb'
p1352
g4
(g5
g6
g7
g8
tp1353
Rp1354
(I1
(tg1337
I00
S'\x00\x00\x00\x00\x00\x00\xf0?'
p1355
g18
(g19
g20
(dp1356
g38
(S'ampere'
p1357
NS'A'
p1358
N(lp1359
S'amp'
p1360
aS'amps'
p1361
aS'amperes'
p1362
aNtp1363
Rp1364
(I1
(I4
I96
tp1365
tp1366
bI1
sg49
(S'second'
p1367
NS's'
p1368
N(lp1369
S'sec'
p1370
aS'seconds'
p1371
aNtp1372
Rp1373
(I1
(I3
I0
tp1374
tp1375
bI1
stp1376
Rp1377
tp1378
bS'C'
p1379
N(lp1380
Ntp1381
Rp1382
(I1
(I90
I99
tp1383
tp1384
bI-1
sg22
(S'joule'
p1385
g4
(g5
g6
g7
g8
tp1386
Rp1387
(I1
(tg1337
I00
S'\x00\x00\x00\x00\x00\x00\xf0?'
p1388
g18
(g19
g20
(dp1389
g22
(S'newton'
p1390
g4
(g5
g6
g7
g8
tp1391
Rp1392
(I1
(tg1337
I00
S'\x00\x00\x00\x00\x00\x00\xf0?'
p1393
g18
(g19
g20
(dp1394
g1373
I-2
sg78
(S'kilogram'
p1395
NS'kg'
p1396
N(lp1397
S'kilograms'
p1398
aNtp1399
Rp1400
(I1
(I1
I63
tp1401
tp1402
bI1
sg87
(S'meter'
p1403
NS'm'
p1404
N(lp1405
S'meters'
p1406
aS'metre'
p1407
aS'metres'
p1408
aNtp1409
Rp1410
(I1
(I2
I2
tp1411
tp1412
bI1
stp1413
Rp1414
tp1415
bS'N'
p1416
N(lp1417
S'newtons'
p1418
aNtp1419
Rp1420
(I1
(I90
I66
tp1421
tp1422
bI1
sg1410
I1
stp1423
Rp1424
tp1425
bS'J'
p1426
N(lp1427
S'joules'
p1428
aNtp1429
Rp1430
(I1
(I90
I76
tp1431
tp1432
bI1
stp1433
Rp1434
tp1435
bS'V'
p1436
N(lp1437
S'volts'
p1438
aNtp1439
Rp1440
(I1
(I90
I100
tp1441
tp1442
bI1
stp1443
Rp1444
tp1445
bS'mV'
p1446
N(lp1447
S'millivolts'
p1448
aNtp1449
Rp1450
(I1
(I90
I102
tp1451
tp1452
bI1
stp1453
Rp1454
tp1455
bsS'Injected current AP threshold test'
p1456
g4
(g5
g6
g7
g8
tp1457
Rp1458
(I1
(tg1337
I00
S'RP\xee\xe7\x1a\x7fH\xc0'
p1459
g18
(g19
g20
(dp1460
g1450
I1
stp1461
Rp1462
tp1463
bsS'Time constant test'
p1464
g4
(g5
g6
g7
g8
tp1465
Rp1466
(I1
(tg1337
I00
S'\x98~ET\xa1\xf02@'
p1467
g18
(g19
g20
(dp1468
g49
(S'millisecond'
p1469
g4
(g5
g6
g7
g8
tp1470
Rp1471
(I1
(tg1337
I00
S'\xfc\xa9\xf1\xd2MbP?'
p1472
g18
(g19
g20
(dp1473
g1373
I1
stp1474
Rp1475
tp1476
bS'ms'
p1477
N(lp1478
S'milliseconds'
p1479
aNtp1480
Rp1481
(I1
(I3
I1
tp1482
tp1483
bI1
stp1484
Rp1485
tp1486
bsS'Injected current AP width test'
p1487
g4
(g5
g6
g7
g8
tp1488
Rp1489
(I1
(tg1337
I00
S'\x00\x00\x00\x00\x00\x00\xfe?'
p1490
g18
(g19
g20
(dp1491
g1481
I1
stp1492
Rp1493
tp1494
bsS'Input resistance test'
p1495
g4
(g5
g6
g7
g8
tp1496
Rp1497
(I1
(tg1337
I00
S'c\xaa\xf87\xc6\x08\x90A'
p1498
g18
(g19
g20
(dp1499
g1364
g185
(g188
S'\xfe\xff\xff\xff\xff\xff\xff\xff'
p1500
tp1501
Rp1502
sg1373
g185
(g188
S'\xfd\xff\xff\xff\xff\xff\xff\xff'
p1503
tp1504
Rp1505
sg1400
I1
sg1410
I2
stp1506
Rp1507
tp1508
bsS'Injected current AP amplitude test'
p1509
g4
(g5
g6
g7
g8
tp1510
Rp1511
(I1
(tg1337
I00
S'\xff\x96\x87\x13\x96QV@'
p1512
g18
(g19
g20
(dp1513
g1450
I1
stp1514
Rp1515
tp1516
bss.